target datalayout = "e-m:e-p270:32:32-p271:32:32-p272:64:64-i64:64-i128:128-f80:128-n8:16:32:64-S128"
target triple = "x86_64-pc-linux-gnu"

%struct.CPpmd7 = type { ptr, ptr, ptr, i32, i32, i32, i32, i32, i32, i32, i32, i32, ptr, ptr, ptr, ptr, ptr, i32, [38 x i8], [128 x i8], [38 x i32], [256 x i8], [256 x i8], [256 x i8], %struct.CPpmd_See, [25 x [16 x %struct.CPpmd_See]], [128 x [64 x i16]] }
%struct.CPpmd_See = type { i16, i8, i8 }
%struct.CPpmd_State = type { i8, i8, i16, i16 }

; Function Attrs: nounwind uwtable
define internal void @NextContext(ptr noundef %0) #0 {
  %2 = alloca ptr, align 8
  %3 = alloca ptr, align 8
  store ptr %0, ptr %2, align 8, !tbaa !3
  call void @llvm.lifetime.start.p0(i64 8, ptr %3) #4
  %4 = load ptr, ptr %2, align 8, !tbaa !3
  %5 = getelementptr inbounds nuw %struct.CPpmd7, ptr %4, i32 0, i32 12
  %6 = load ptr, ptr %5, align 8, !tbaa !7
  %7 = load ptr, ptr %2, align 8, !tbaa !3
  %8 = getelementptr inbounds nuw %struct.CPpmd7, ptr %7, i32 0, i32 2
  %9 = load ptr, ptr %8, align 8, !tbaa !40
  %10 = getelementptr inbounds nuw %struct.CPpmd_State, ptr %9, i32 0, i32 2
  %11 = load i16, ptr %10, align 2, !tbaa !55
  %12 = zext i16 %11 to i32
  %13 = load ptr, ptr %2, align 8, !tbaa !3
  %14 = getelementptr inbounds nuw %struct.CPpmd7, ptr %13, i32 0, i32 2
  %15 = load ptr, ptr %14, align 8, !tbaa !40
  %16 = getelementptr inbounds nuw %struct.CPpmd_State, ptr %15, i32 0, i32 3
  %17 = load i16, ptr %16, align 2, !tbaa !56
  %18 = zext i16 %17 to i32
  %19 = shl i32 %18, 16
  %20 = or i32 %12, %19
  %21 = zext i32 %20 to i64
  %22 = getelementptr inbounds nuw i8, ptr %6, i64 %21
  store ptr %22, ptr %3, align 8, !tbaa !57
  %23 = load ptr, ptr %2, align 8, !tbaa !3
  %24 = getelementptr inbounds nuw %struct.CPpmd7, ptr %23, i32 0, i32 3
  %25 = load i32, ptr %24, align 8, !tbaa !30
  %26 = icmp eq i32 %25, 0
  br i1 %26, label %27, label %39

27:                                               ; preds = %1
  %28 = load ptr, ptr %3, align 8, !tbaa !57
  %29 = load ptr, ptr %2, align 8, !tbaa !3
  %30 = getelementptr inbounds nuw %struct.CPpmd7, ptr %29, i32 0, i32 15
  %31 = load ptr, ptr %30, align 8, !tbaa !25
  %32 = icmp ugt ptr %28, %31
  br i1 %32, label %33, label %39

33:                                               ; preds = %27
  %34 = load ptr, ptr %3, align 8, !tbaa !57
  %35 = load ptr, ptr %2, align 8, !tbaa !3
  %36 = getelementptr inbounds nuw %struct.CPpmd7, ptr %35, i32 0, i32 1
  store ptr %34, ptr %36, align 8, !tbaa !34
  %37 = load ptr, ptr %2, align 8, !tbaa !3
  %38 = getelementptr inbounds nuw %struct.CPpmd7, ptr %37, i32 0, i32 0
  store ptr %34, ptr %38, align 8, !tbaa !35
  br label %41

39:                                               ; preds = %27, %1
  %40 = load ptr, ptr %2, align 8, !tbaa !3
  call void @UpdateModel(ptr noundef %40)
  br label %41

41:                                               ; preds = %39, %33
  call void @llvm.lifetime.end.p0(i64 8, ptr %3) #4
  ret void
}

; Function Attrs: nounwind uwtable
define void @Ppmd7_UpdateBin(ptr noundef %0) #0 {
  %2 = alloca ptr, align 8
  store ptr %0, ptr %2, align 8, !tbaa !3
  %3 = load ptr, ptr %2, align 8, !tbaa !3
  %4 = getelementptr inbounds nuw %struct.CPpmd7, ptr %3, i32 0, i32 2
  %5 = load ptr, ptr %4, align 8, !tbaa !40
  %6 = getelementptr inbounds nuw %struct.CPpmd_State, ptr %5, i32 0, i32 1
  %7 = load i8, ptr %6, align 1, !tbaa !44
  %8 = zext i8 %7 to i32
  %9 = load ptr, ptr %2, align 8, !tbaa !3
  %10 = getelementptr inbounds nuw %struct.CPpmd7, ptr %9, i32 0, i32 2
  %11 = load ptr, ptr %10, align 8, !tbaa !40
  %12 = getelementptr inbounds nuw %struct.CPpmd_State, ptr %11, i32 0, i32 1
  %13 = load i8, ptr %12, align 1, !tbaa !44
  %14 = zext i8 %13 to i32
  %15 = icmp slt i32 %14, 128
  %16 = select i1 %15, i32 1, i32 0
  %17 = add nsw i32 %8, %16
  %18 = trunc i32 %17 to i8
  %19 = load ptr, ptr %2, align 8, !tbaa !3
  %20 = getelementptr inbounds nuw %struct.CPpmd7, ptr %19, i32 0, i32 2
  %21 = load ptr, ptr %20, align 8, !tbaa !40
  %22 = getelementptr inbounds nuw %struct.CPpmd_State, ptr %21, i32 0, i32 1
  store i8 %18, ptr %22, align 1, !tbaa !44
  %23 = load ptr, ptr %2, align 8, !tbaa !3
  %24 = getelementptr inbounds nuw %struct.CPpmd7, ptr %23, i32 0, i32 5
  store i32 1, ptr %24, align 8, !tbaa !33
  %25 = load ptr, ptr %2, align 8, !tbaa !3
  %26 = getelementptr inbounds nuw %struct.CPpmd7, ptr %25, i32 0, i32 8
  %27 = load i32, ptr %26, align 4, !tbaa !32
  %28 = add nsw i32 %27, 1
  store i32 %28, ptr %26, align 4, !tbaa !32
  %29 = load ptr, ptr %2, align 8, !tbaa !3
  call void @NextContext(ptr noundef %29)
  ret void
}