; Function Attrs: nofree norecurse nosync nounwind memory(readwrite, inaccessiblemem: none) uwtable
define void @Ppmd7_UpdateBin(ptr noundef captures(none) initializes((32, 36)) %0) local_unnamed_addr #6 {
  %2 = getelementptr inbounds nuw i8, ptr %0, i64 16
  %3 = load ptr, ptr %2, align 8, !tbaa !37
  %4 = getelementptr inbounds nuw i8, ptr %3, i64 1
  %5 = load i8, ptr %4, align 1, !tbaa !42
  %6 = icmp sgt i8 %5, -1
  %7 = zext i1 %6 to i8
  %8 = add i8 %5, %7
  store i8 %8, ptr %4, align 1, !tbaa !42
  %9 = getelementptr inbounds nuw i8, ptr %0, i64 32
  store i32 1, ptr %9, align 8, !tbaa !29
  %10 = getelementptr inbounds nuw i8, ptr %0, i64 44
  %11 = load i32, ptr %10, align 4, !tbaa !28
  %12 = add nsw i32 %11, 1
  store i32 %12, ptr %10, align 4, !tbaa !28
  %13 = getelementptr inbounds nuw i8, ptr %0, i64 64
  %14 = load ptr, ptr %13, align 8, !tbaa !3
  %15 = getelementptr inbounds nuw i8, ptr %3, i64 2
  %16 = load i32, ptr %15, align 2
  %17 = zext i32 %16 to i64
  %18 = getelementptr inbounds nuw i8, ptr %14, i64 %17
  %19 = getelementptr inbounds nuw i8, ptr %0, i64 24
  %20 = load i32, ptr %19, align 8, !tbaa !26
  %21 = icmp eq i32 %20, 0
  br i1 %21, label %22, label %28

22:                                               ; preds = %1
  %23 = getelementptr inbounds nuw i8, ptr %0, i64 88
  %24 = load ptr, ptr %23, align 8, !tbaa !23
  %25 = icmp ugt ptr %18, %24
  br i1 %25, label %26, label %28

26:                                               ; preds = %22
  %27 = getelementptr inbounds nuw i8, ptr %0, i64 8
  store ptr %18, ptr %27, align 8, !tbaa !31
  store ptr %18, ptr %0, align 8, !tbaa !32
  br label %NextContext.exit

28:                                               ; preds = %22, %1
  tail call fastcc void @UpdateModel(ptr noundef nonnull %0)
  br label %NextContext.exit

NextContext.exit:                                 ; preds = %26, %28
  ret void
}